Certificate:
    Data:
        Version: 3 (0x2)
        Serial Number: 2 (0x2)
        Signature Algorithm: sha256WithRSAEncryption
        Issuer: CN=root1-ca
        Validity
            Not Before: Feb  3 01:32:40 2017 GMT
            Not After : Jan 27 01:32:40 2047 GMT
        Subject: CN=inter1B-ca
        Subject Public Key Info:
            Public Key Algorithm: rsaEncryption
            RSA Public Key: (2048 bit)
                Modulus (2048 bit):
                    00:b1:d8:e9:eb:fa:41:e8:ca:72:1d:e0:a8:4f:f7:
                    01:ad:a3:c3:cc:c3:b1:30:cd:20:ea:5a:cc:12:40:
                    37:ef:ba:a6:2b:17:55:0b:53:d2:c0:08:ff:76:80:
                    2a:05:af:38:8c:f3:b0:15:86:40:74:d3:0c:8f:b2:
                    e9:89:7b:b0:fa:64:be:78:3e:9b:90:02:dd:3f:11:
                    01:28:9d:3e:f5:06:e6:5f:47:85:2c:e5:5d:16:53:
                    c3:d2:80:e9:19:72:2f:a7:cc:ec:0b:52:9b:d6:c6:
                    72:2f:b3:8e:5b:4c:70:41:48:3a:3b:4d:42:2e:f0:
                    59:36:4b:8e:6f:6b:f9:d7:11:c6:f3:1c:6d:ad:16:
                    69:9b:6d:0b:59:c2:4b:68:00:2e:6b:5b:71:eb:b5:
                    32:9d:fb:76:ca:69:1b:55:78:f8:65:89:3e:a6:84:
                    c8:ef:b1:ca:f5:e6:c1:24:22:eb:18:69:49:0b:8c:
                    5b:04:74:8f:0b:65:b6:0e:8d:17:51:89:40:29:66:
                    fc:14:e6:27:8a:91:ad:e2:19:95:cc:6d:0a:dd:5b:
                    15:03:9b:f3:ea:53:88:31:9f:40:22:ac:4c:07:69:
                    04:75:ff:c1:3d:d4:d3:cd:bc:d2:af:76:c9:f0:b0:
                    7d:c9:df:7d:48:45:ae:5d:f8:39:a8:69:9c:74:42:
                    ec:33
                Exponent: 65537 (0x10001)
        X509v3 extensions:
            X509v3 Basic Constraints: critical
                CA:TRUE
            Netscape Cert Type: 
                SSL CA, S/MIME CA, Object Signing CA
            X509v3 Key Usage: critical
                Digital Signature, Certificate Sign, CRL Sign
            X509v3 Subject Key Identifier: 
                C3:BB:9B:01:23:14:D8:0A:32:0F:30:21:2D:D4:8B:5F:41:31:15:71
            X509v3 Authority Key Identifier: 
                keyid:C1:82:63:5D:DC:A4:15:64:71:FB:77:55:0D:A2:4E:35:C9:8E:7B:DC
                DirName:/CN=root1-ca
                serial:A2:15:F7:04:7E:B6:DF:8F

    Signature Algorithm: sha256WithRSAEncryption
        20:66:24:3d:08:04:c6:d5:c8:e2:8f:13:97:5d:bf:e5:41:80:
        c8:92:a6:ef:b5:24:f8:91:19:25:80:e1:62:d2:ea:32:78:67:
        af:46:ba:9d:4a:89:3c:e7:fc:ef:48:ef:46:da:ab:df:a1:65:
        dd:d6:a7:a4:8f:3a:1d:6d:e3:35:2a:05:17:ce:17:ec:65:8d:
        d8:72:1c:51:b3:10:6a:55:62:84:2f:87:9c:8c:7d:d9:55:2c:
        7a:c8:78:46:6e:9c:8b:ee:ed:1d:f2:26:20:ae:ce:18:bc:46:
        2c:5c:1a:a0:6b:ee:0e:c6:6a:db:dc:80:bc:ec:3b:90:dc:3e:
        c4:90:00:8e:d3:be:d5:db:93:b8:a6:74:8e:b7:36:24:a9:35:
        ed:54:6d:72:8e:2e:f7:cb:b0:c1:5a:bc:e7:63:49:5f:67:93:
        98:4f:33:5d:b2:8d:b5:6b:05:c3:32:3f:06:02:b6:7a:19:ef:
        07:df:5b:8a:4c:c4:02:26:17:84:9d:d3:ef:ec:09:58:7d:83:
        cf:e8:63:3d:07:7b:73:f7:55:19:1f:e0:0e:b2:a4:31:60:21:
        bb:07:db:e4:85:d5:cd:0a:a2:e6:bd:3b:46:27:36:0e:ea:8c:
        c4:9e:9e:96:c2:5c:98:04:1b:df:69:52:fc:dd:2d:2a:14:9e:
        fa:b4:71:44
-----BEGIN CERTIFICATE-----
MIIDPzCCAiegAwIBAgIBAjANBgkqhkiG9w0BAQsFADATMREwDwYDVQQDEwhyb290
MS1jYTAeFw0xNzAyMDMwMTMyNDBaFw00NzAxMjcwMTMyNDBaMBUxEzARBgNVBAMT
CmludGVyMUItY2EwggEiMA0GCSqGSIb3DQEBAQUAA4IBDwAwggEKAoIBAQCx2Onr
+kHoynId4KhP9wGto8PMw7EwzSDqWswSQDfvuqYrF1ULU9LACP92gCoFrziM87AV
hkB00wyPsumJe7D6ZL54PpuQAt0/EQEonT71BuZfR4Us5V0WU8PSgOkZci+nzOwL
UpvWxnIvs45bTHBBSDo7TUIu8Fk2S45va/nXEcbzHG2tFmmbbQtZwktoAC5rW3Hr
tTKd+3bKaRtVePhliT6mhMjvscr15sEkIusYaUkLjFsEdI8LZbYOjRdRiUApZvwU
5ieKka3iGZXMbQrdWxUDm/PqU4gxn0AirEwHaQR1/8E91NPNvNKvdsnwsH3J331I
Ra5d+DmoaZx0QuwzAgMBAAGjgZswgZgwDwYDVR0TAQH/BAUwAwEB/zARBglghkgB
hvhCAQEEBAMCAAcwDgYDVR0PAQH/BAQDAgGGMB0GA1UdDgQWBBTDu5sBIxTYCjIP
MCEt1ItfQTEVcTBDBgNVHSMEPDA6gBTBgmNd3KQVZHH7d1UNok41yY573KEXpBUw
EzERMA8GA1UEAxMIcm9vdDEtY2GCCQCiFfcEfrbfjzANBgkqhkiG9w0BAQsFAAOC
AQEAIGYkPQgExtXI4o8Tl12/5UGAyJKm77Uk+JEZJYDhYtLqMnhnr0a6nUqJPOf8
70jvRtqr36Fl3danpI86HW3jNSoFF84X7GWN2HIcUbMQalVihC+HnIx92VUsesh4
Rm6ci+7tHfImIK7OGLxGLFwaoGvuDsZq29yAvOw7kNw+xJAAjtO+1duTuKZ0jrc2
JKk17VRtco4u98uwwVq852NJX2eTmE8zXbKNtWsFwzI/BgK2ehnvB99bikzEAiYX
hJ3T7+wJWH2Dz+hjPQd7c/dVGR/gDrKkMWAhuwfb5IXVzQqi5r07Ric2DuqMxJ6e
lsJcmAQb32lS/N0tKhSe+rRxRA==
-----END CERTIFICATE-----
