Certificate:
    Data:
        Version: 3 (0x2)
        Serial Number: 2 (0x2)
        Signature Algorithm: sha256WithRSAEncryption
        Issuer: CN=inter1A1-ca
        Validity
            Not Before: Feb  3 01:32:36 2017 GMT
            Not After : Feb  3 01:32:46 2017 GMT
        Subject: CN=foo.example.org
        Subject Public Key Info:
            Public Key Algorithm: rsaEncryption
            RSA Public Key: (2048 bit)
                Modulus (2048 bit):
                    00:f1:68:f3:e9:48:47:16:79:b1:61:4a:b0:87:81:
                    6b:94:31:59:0b:f3:df:94:4a:94:ac:58:88:fd:21:
                    1b:ea:e3:f0:6d:df:50:77:20:aa:08:79:cc:98:f2:
                    ef:56:78:4a:84:71:99:4f:ab:f6:cc:18:63:10:f8:
                    3d:6e:bf:e7:84:12:83:8b:ad:93:3d:5c:5c:21:b1:
                    37:a8:59:e5:8f:44:c0:96:ca:b3:39:9f:c2:d8:4b:
                    6e:86:a8:ff:3a:e4:e5:d1:4e:8b:03:bb:26:80:51:
                    58:c5:fe:57:fe:91:91:68:2c:4a:1d:08:d8:3e:03:
                    45:d5:22:ec:6d:db:de:ad:60:f1:6c:55:7c:1b:37:
                    f5:c3:2c:b5:37:77:b6:70:a9:b9:0a:39:37:95:92:
                    96:0e:20:84:54:e0:b7:73:c2:f6:89:0e:ae:14:aa:
                    90:3b:1a:24:09:35:00:b8:f9:c7:69:f0:c5:0e:86:
                    76:c4:29:c9:79:70:b8:40:37:24:7a:c1:3c:6d:ab:
                    1c:0c:10:4d:75:0b:e6:d7:86:ce:31:cc:e4:bf:a5:
                    df:97:75:1a:8d:32:19:c6:8e:be:08:35:83:4b:50:
                    c6:5a:d3:59:cd:4b:92:bc:01:f8:63:88:bf:75:01:
                    97:2b:4c:cc:57:d3:ad:d2:e5:ad:93:ec:f0:10:63:
                    dc:8b
                Exponent: 65537 (0x10001)
        X509v3 extensions:
            X509v3 Basic Constraints: 
                CA:FALSE
            Netscape Cert Type: 
                SSL Client, SSL Server
            X509v3 Key Usage: critical
                Digital Signature, Non Repudiation, Key Encipherment
            Netscape Comment: 
                OpenSSL Generated Certificate
            X509v3 Subject Key Identifier: 
                DA:C8:54:0C:F4:BA:23:DB:9E:A4:CD:C5:16:66:CF:5F:92:31:C7:67
            X509v3 Authority Key Identifier: 
                keyid:A7:B8:9A:C3:6F:23:5C:93:B6:EE:FC:26:29:C4:B1:43:5E:74:80:22
                DirName:/CN=inter1A-ca
                serial:01

            X509v3 Subject Alternative Name: 
                DNS:foo.example.org, URI:https://foo.example.org/sp
    Signature Algorithm: sha256WithRSAEncryption
        9d:c8:f1:ea:fc:23:25:1d:0f:37:18:6a:5d:fe:bc:5b:92:0d:
        7a:cc:3b:05:54:5d:53:53:cc:39:d4:99:3d:3a:49:07:de:05:
        f1:a1:f2:51:9f:e9:08:3b:ce:d5:8e:f5:87:37:12:ff:ce:4d:
        a0:be:f6:f2:67:1f:0f:f3:9c:95:2c:79:c9:96:aa:71:ef:2e:
        ee:7e:50:f7:c3:4a:d3:a2:d9:20:7d:a7:10:24:62:03:de:a3:
        66:0e:9c:e2:77:79:9d:99:42:8d:3b:54:b1:57:7e:d1:32:2f:
        5e:5f:23:84:1b:0e:ca:50:56:59:a1:a5:76:2f:23:bd:bd:1a:
        4d:e5:6f:ce:d4:3f:6c:32:13:5d:c2:61:0d:dc:c3:d8:2a:fd:
        fb:b8:1a:7c:57:92:f9:9e:4a:04:b6:bd:33:46:cd:38:0f:46:
        fa:ec:ac:0e:ac:b5:f7:72:da:74:3b:2a:0c:6d:c8:54:78:f4:
        94:e7:0b:e6:f6:34:dd:44:f7:2a:8a:bf:b6:87:b7:8a:6e:14:
        87:a7:ad:56:20:b5:1f:fc:d1:6e:db:30:5f:28:53:78:83:4e:
        a1:2d:91:3e:ad:d5:b4:fe:31:a7:84:ba:a5:93:cf:49:a3:0e:
        cf:1d:fd:95:02:24:1e:45:71:a1:ad:79:8e:41:8a:4f:26:ce:
        0f:b1:ea:8f
-----BEGIN CERTIFICATE-----
MIIDoTCCAomgAwIBAgIBAjANBgkqhkiG9w0BAQsFADAWMRQwEgYDVQQDEwtpbnRl
cjFBMS1jYTAeFw0xNzAyMDMwMTMyMzZaFw0xNzAyMDMwMTMyNDZaMBoxGDAWBgNV
BAMTD2Zvby5leGFtcGxlLm9yZzCCASIwDQYJKoZIhvcNAQEBBQADggEPADCCAQoC
ggEBAPFo8+lIRxZ5sWFKsIeBa5QxWQvz35RKlKxYiP0hG+rj8G3fUHcgqgh5zJjy
71Z4SoRxmU+r9swYYxD4PW6/54QSg4utkz1cXCGxN6hZ5Y9EwJbKszmfwthLboao
/zrk5dFOiwO7JoBRWMX+V/6RkWgsSh0I2D4DRdUi7G3b3q1g8WxVfBs39cMstTd3
tnCpuQo5N5WSlg4ghFTgt3PC9okOrhSqkDsaJAk1ALj5x2nwxQ6GdsQpyXlwuEA3
JHrBPG2rHAwQTXUL5teGzjHM5L+l35d1Go0yGcaOvgg1g0tQxlrTWc1LkrwB+GOI
v3UBlytMzFfTrdLlrZPs8BBj3IsCAwEAAaOB9TCB8jAJBgNVHRMEAjAAMBEGCWCG
SAGG+EIBAQQEAwIGwDAOBgNVHQ8BAf8EBAMCBeAwLAYJYIZIAYb4QgENBB8WHU9w
ZW5TU0wgR2VuZXJhdGVkIENlcnRpZmljYXRlMB0GA1UdDgQWBBTayFQM9Loj256k
zcUWZs9fkjHHZzA9BgNVHSMENjA0gBSnuJrDbyNck7bu/CYpxLFDXnSAIqEZpBcw
FTETMBEGA1UEAxMKaW50ZXIxQS1jYYIBATA2BgNVHREELzAtgg9mb28uZXhhbXBs
ZS5vcmeGGmh0dHBzOi8vZm9vLmV4YW1wbGUub3JnL3NwMA0GCSqGSIb3DQEBCwUA
A4IBAQCdyPHq/CMlHQ83GGpd/rxbkg16zDsFVF1TU8w51Jk9OkkH3gXxofJRn+kI
O87VjvWHNxL/zk2gvvbyZx8P85yVLHnJlqpx7y7uflD3w0rTotkgfacQJGID3qNm
Dpzid3mdmUKNO1SxV37RMi9eXyOEGw7KUFZZoaV2LyO9vRpN5W/O1D9sMhNdwmEN
3MPYKv37uBp8V5L5nkoEtr0zRs04D0b67KwOrLX3ctp0OyoMbchUePSU5wvm9jTd
RPcqir+2h7eKbhSHp61WILUf/NFu2zBfKFN4g06hLZE+rdW0/jGnhLqlk89Jow7P
Hf2VAiQeRXGhrXmOQYpPJs4PseqP
-----END CERTIFICATE-----
